Certificate:
    Data:
        Version: 3 (0x2)
        Serial Number: 4097 (0x1001)
        Signature Algorithm: md5WithRSAEncryption
        Issuer: C=US, ST=Utah, L=SLC, O=UofU, OU=MSD, CN=Corinne/emailAddress=corinne@gmail.com
        Validity
            Not Before: Mar 15 21:07:05 2024 GMT
            Not After : Mar 15 21:07:05 2025 GMT
        Subject: C=US, ST=Utah, O=UofU, OU=MSD, CN=Lindsay/emailAddress=lindsay@gmail.com
        Subject Public Key Info:
            Public Key Algorithm: rsaEncryption
                Public-Key: (4096 bit)
                Modulus:
                    00:bc:da:42:eb:6f:a3:13:7f:a2:e9:d3:b0:a9:67:
                    7a:b9:e6:d7:5a:56:08:36:a3:ea:d4:07:67:dd:2f:
                    33:dc:b1:3b:99:3e:17:8d:c2:06:a8:d5:87:43:61:
                    c7:4f:c1:0b:93:c6:48:94:66:6d:16:5c:fc:29:6b:
                    62:f1:aa:07:51:72:60:e9:07:52:7e:85:da:b3:9c:
                    ca:aa:ec:83:b4:57:2f:35:7a:7e:71:2e:e5:50:bc:
                    cc:62:1f:5b:3c:62:01:2e:e1:88:30:a6:3c:48:fb:
                    4e:49:02:84:40:4a:9a:15:69:bd:75:04:81:2a:82:
                    b6:9d:6f:90:21:79:11:f0:e8:bf:62:e1:68:6d:c9:
                    06:f4:ca:04:59:2a:9c:3f:56:d0:d5:cb:f8:53:ff:
                    c6:00:a5:89:54:58:36:b3:8b:d3:a6:dc:47:93:83:
                    bf:1a:56:59:41:3d:ae:36:04:4e:56:d0:ea:8f:d2:
                    94:74:d4:97:af:96:d8:f9:09:a4:5d:10:1c:16:b9:
                    30:31:4d:a7:47:b0:e4:95:e6:f0:29:e5:87:b1:2b:
                    c9:2c:c0:3d:75:4a:39:92:88:d9:37:df:3b:43:4e:
                    51:61:78:11:d7:03:10:77:0a:b0:c4:a1:68:52:89:
                    19:a3:db:a1:9f:48:c9:e3:a1:e9:6c:69:2c:54:5c:
                    8c:e5:50:72:4a:db:9a:3f:0f:04:e4:04:d8:44:89:
                    07:af:7a:3f:a4:7d:22:a2:9a:0c:c6:a7:1c:06:5f:
                    f0:c7:d7:fc:be:02:39:40:af:5f:f8:19:1b:92:57:
                    20:26:7c:34:0d:a7:26:57:eb:2c:01:a7:52:e8:80:
                    83:80:6a:7f:39:e3:e8:18:9a:9e:92:10:21:c7:14:
                    e5:dc:86:17:90:a7:47:f6:cd:6c:a9:9d:8c:3a:a2:
                    b5:92:fb:41:33:5f:89:b1:bd:3d:38:bf:90:a2:4c:
                    2e:5f:b7:c1:94:96:f0:a4:09:71:8f:4b:f3:57:b6:
                    b2:73:c5:de:dc:ec:0c:ec:7f:ab:1e:7e:01:4a:cf:
                    70:81:1f:3c:33:ed:31:77:a8:6a:64:9b:81:03:da:
                    da:fe:be:c7:fe:a1:1b:2d:8e:c8:94:ea:96:d1:6b:
                    91:7b:72:59:f7:d1:60:d3:43:42:7f:b9:cf:e0:a5:
                    e3:82:9f:74:08:1a:ba:72:fd:8f:2d:31:c9:87:d7:
                    e6:48:79:52:a3:32:80:30:47:65:2b:af:e2:9f:f4:
                    e3:b0:4e:e9:60:04:83:78:2c:35:b7:93:60:f9:1d:
                    27:67:5f:02:7d:0e:bc:3a:a0:17:72:f6:57:24:1e:
                    68:5b:85:05:b8:b7:2e:8f:19:f3:e7:5d:9c:99:01:
                    18:91:41
                Exponent: 65537 (0x10001)
        X509v3 extensions:
            X509v3 Basic Constraints: 
                CA:FALSE
            Netscape Comment: 
                OpenSSL Generated Certificate
            X509v3 Subject Key Identifier: 
                7D:B4:F1:59:2E:53:B8:D2:9D:E4:7A:E4:26:BB:ED:FC:8B:DE:09:02
            X509v3 Authority Key Identifier: 
                keyid:F7:DC:3C:8C:23:FE:7B:D0:65:D3:0C:82:AB:B8:9C:6F:6E:74:BD:37
                DirName:/C=US/ST=Utah/L=SLC/O=UofU/OU=MSD/CN=Corinne/emailAddress=corinne@gmail.com
                serial:1B:9A:B5:92:64:99:6E:27:AF:4C:C6:B5:CA:C7:C5:33:D9:21:54
    Signature Algorithm: md5WithRSAEncryption
    Signature Value:
        07:e6:aa:19:0e:c4:fb:e5:95:19:98:7d:00:02:4e:fa:ed:1d:
        1b:ff:bd:c3:32:64:a2:da:45:3f:2c:1f:71:94:b2:4f:99:71:
        02:82:25:58:9f:81:05:5c:92:be:8e:3f:50:06:74:57:84:bb:
        66:b8:42:21:36:05:21:42:41:a7:f2:28:f8:c6:1e:09:9d:80:
        36:d9:25:d0:36:2e:dd:b8:7c:d3:ee:47:e7:47:48:7c:f3:59:
        64:5a:20:9a:cd:e9:25:cc:3b:4e:d4:c0:6b:94:fd:ef:08:ab:
        80:a9:a9:2c:e1:91:dd:14:1b:e5:d1:89:9a:e1:4b:9e:00:8f:
        fd:fc:f0:c1:0c:b8:19:92:58:51:14:ec:24:04:b1:bd:3e:83:
        0f:4c:81:7f:ac:b8:12:8a:88:86:62:fa:d3:2e:59:f9:41:cf:
        ea:16:df:29:80:2b:3d:71:e4:06:9b:81:7e:d2:d6:8b:cd:8c:
        8d:6c:c5:1b:78:03:a1:a7:2c:81:e1:e5:23:a9:46:70:d3:e7:
        79:49:3a:3c:5e:f9:f9:15:95:58:25:34:00:13:ce:1e:63:49:
        7a:cf:95:b6:97:ae:77:be:fb:b4:b4:a9:74:3f:6a:98:42:08:
        3a:fc:0b:2f:fc:ec:c8:1a:b6:83:73:ca:8a:60:bc:c0:6c:b3:
        aa:2d:09:ef:2c:c5:d1:40:00:37:c3:42:bd:06:dd:be:f7:93:
        c8:ec:3f:71:3e:d4:b6:89:c4:e5:5a:96:2c:76:39:dd:6b:91:
        2b:7a:6d:d1:f6:e7:ca:0e:9b:c3:ab:c1:af:6d:ca:72:b5:0b:
        35:ec:ec:36:0d:32:69:83:e0:f4:a9:42:6a:43:1a:6c:ab:15:
        15:a3:04:e2:dc:f8:fa:a2:37:b4:cd:1f:0d:19:26:a0:52:fd:
        85:63:1a:0a:ed:ad:89:2e:74:1c:8f:fe:4a:ec:c7:c2:03:3b:
        b5:95:43:ce:a8:d2:40:a3:09:67:45:f4:44:c1:32:3b:d8:99:
        b8:6b:4b:75:02:97:49:85:8d:09:77:fb:9b:0c:32:42:aa:d3:
        3d:17:87:e3:a0:86:7b:68:57:ca:d7:6f:d3:8d:b2:95:c2:8c:
        76:a9:d5:d6:c7:f7:1a:9c:f1:ae:5a:22:4a:4b:95:1d:43:e5:
        ed:46:d9:77:98:56:c7:e2:15:d0:68:26:9c:03:f6:24:9c:e9:
        9c:36:c1:2e:7a:ad:d8:e9:04:92:6e:9f:86:f4:68:37:4a:88:
        27:fb:1b:e0:1f:79:87:70:62:09:67:42:86:eb:5b:32:48:82:
        74:5d:62:4b:23:7c:d5:7f:27:03:b3:1f:51:6f:11:9c:4e:cb:
        30:17:b5:cc:ce:ab:8e:bc
-----BEGIN CERTIFICATE-----
MIIGfDCCBGSgAwIBAgICEAEwDQYJKoZIhvcNAQEEBQAwezELMAkGA1UEBhMCVVMx
DTALBgNVBAgMBFV0YWgxDDAKBgNVBAcMA1NMQzENMAsGA1UECgwEVW9mVTEMMAoG
A1UECwwDTVNEMRAwDgYDVQQDDAdDb3Jpbm5lMSAwHgYJKoZIhvcNAQkBFhFjb3Jp
bm5lQGdtYWlsLmNvbTAeFw0yNDAzMTUyMTA3MDVaFw0yNTAzMTUyMTA3MDVaMG0x
CzAJBgNVBAYTAlVTMQ0wCwYDVQQIDARVdGFoMQ0wCwYDVQQKDARVb2ZVMQwwCgYD
VQQLDANNU0QxEDAOBgNVBAMMB0xpbmRzYXkxIDAeBgkqhkiG9w0BCQEWEWxpbmRz
YXlAZ21haWwuY29tMIICIjANBgkqhkiG9w0BAQEFAAOCAg8AMIICCgKCAgEAvNpC
62+jE3+i6dOwqWd6uebXWlYINqPq1Adn3S8z3LE7mT4XjcIGqNWHQ2HHT8ELk8ZI
lGZtFlz8KWti8aoHUXJg6QdSfoXas5zKquyDtFcvNXp+cS7lULzMYh9bPGIBLuGI
MKY8SPtOSQKEQEqaFWm9dQSBKoK2nW+QIXkR8Oi/YuFobckG9MoEWSqcP1bQ1cv4
U//GAKWJVFg2s4vTptxHk4O/GlZZQT2uNgROVtDqj9KUdNSXr5bY+QmkXRAcFrkw
MU2nR7DklebwKeWHsSvJLMA9dUo5kojZN987Q05RYXgR1wMQdwqwxKFoUokZo9uh
n0jJ46HpbGksVFyM5VByStuaPw8E5ATYRIkHr3o/pH0iopoMxqccBl/wx9f8vgI5
QK9f+BkbklcgJnw0DacmV+ssAadS6ICDgGp/OePoGJqekhAhxxTl3IYXkKdH9s1s
qZ2MOqK1kvtBM1+Jsb09OL+QokwuX7fBlJbwpAlxj0vzV7ayc8Xe3OwM7H+rHn4B
Ss9wgR88M+0xd6hqZJuBA9ra/r7H/qEbLY7IlOqW0WuRe3JZ99Fg00NCf7nP4KXj
gp90CBq6cv2PLTHJh9fmSHlSozKAMEdlK6/in/TjsE7pYASDeCw1t5Ng+R0nZ18C
fQ68OqAXcvZXJB5oW4UFuLcujxnz512cmQEYkUECAwEAAaOCARYwggESMAkGA1Ud
EwQCMAAwLAYJYIZIAYb4QgENBB8WHU9wZW5TU0wgR2VuZXJhdGVkIENlcnRpZmlj
YXRlMB0GA1UdDgQWBBR9tPFZLlO40p3keuQmu+38i94JAjCBtwYDVR0jBIGvMIGs
gBT33DyMI/570GXTDIKruJxvbnS9N6F/pH0wezELMAkGA1UEBhMCVVMxDTALBgNV
BAgMBFV0YWgxDDAKBgNVBAcMA1NMQzENMAsGA1UECgwEVW9mVTEMMAoGA1UECwwD
TVNEMRAwDgYDVQQDDAdDb3Jpbm5lMSAwHgYJKoZIhvcNAQkBFhFjb3Jpbm5lQGdt
YWlsLmNvbYITG5q1kmSZbievTMa1ysfFM9khVDANBgkqhkiG9w0BAQQFAAOCAgEA
B+aqGQ7E++WVGZh9AAJO+u0dG/+9wzJkotpFPywfcZSyT5lxAoIlWJ+BBVySvo4/
UAZ0V4S7ZrhCITYFIUJBp/Io+MYeCZ2ANtkl0DYu3bh80+5H50dIfPNZZFogms3p
Jcw7TtTAa5T97wirgKmpLOGR3RQb5dGJmuFLngCP/fzwwQy4GZJYURTsJASxvT6D
D0yBf6y4EoqIhmL60y5Z+UHP6hbfKYArPXHkBpuBftLWi82MjWzFG3gDoacsgeHl
I6lGcNPneUk6PF75+RWVWCU0ABPOHmNJes+Vtpeud777tLSpdD9qmEIIOvwLL/zs
yBq2g3PKimC8wGyzqi0J7yzF0UAAN8NCvQbdvveTyOw/cT7UtonE5VqWLHY53WuR
K3pt0fbnyg6bw6vBr23KcrULNezsNg0yaYPg9KlCakMabKsVFaME4tz4+qI3tM0f
DRkmoFL9hWMaCu2tiS50HI/+SuzHwgM7tZVDzqjSQKMJZ0X0RMEyO9iZuGtLdQKX
SYWNCXf7mwwyQqrTPReH46CGe2hXytdv042ylcKMdqnV1sf3GpzxrloiSkuVHUPl
7UbZd5hWx+IV0GgmnAP2JJzpnDbBLnqt2OkEkm6fhvRoN0qIJ/sb4B95h3BiCWdC
hutbMkiCdF1iSyN81X8nA7MfUW8RnE7LMBe1zM6rjrw=
-----END CERTIFICATE-----
