Certificate:
    Data:
        Version: 3 (0x2)
        Serial Number: 4096 (0x1000)
        Signature Algorithm: md5WithRSAEncryption
        Issuer: C=US, ST=Utah, L=SLC, O=UofU, OU=MSD, CN=Corinne/emailAddress=corinne@gmail.com
        Validity
            Not Before: Mar 15 21:05:29 2024 GMT
            Not After : Mar 15 21:05:29 2025 GMT
        Subject: C=US, ST=Utah, O=UofU, OU=MSD, CN=Sarah/emailAddress=sarah@gmail.com
        Subject Public Key Info:
            Public Key Algorithm: rsaEncryption
                Public-Key: (4096 bit)
                Modulus:
                    00:c6:8e:e9:8a:82:19:46:6e:c9:a7:3a:b2:90:33:
                    e3:76:ea:76:ec:c5:b9:31:2f:ae:f5:30:0f:23:42:
                    e0:7b:4c:f5:64:34:9c:50:ee:e5:29:2e:43:cd:d3:
                    fd:aa:40:d0:08:08:4f:82:81:91:8e:6a:21:82:4d:
                    e4:78:e7:cd:5e:8e:9a:10:18:b4:33:f9:8d:a4:e8:
                    8e:14:f6:4d:5a:60:5b:97:ce:e3:09:09:a4:e9:17:
                    af:22:c1:6c:e5:df:40:b9:29:c9:f8:95:d2:5d:35:
                    1b:94:e1:83:01:be:95:ae:eb:6d:7d:b0:f9:d4:a2:
                    21:55:6f:ca:29:d2:95:dc:0e:cd:51:72:12:7c:20:
                    fb:86:bf:fd:d0:05:27:7d:78:b1:8c:0f:a9:fa:00:
                    43:34:6e:05:69:83:0a:01:8b:29:46:59:20:d6:a4:
                    2d:9d:78:ed:bb:d6:1c:0c:09:c4:6e:3b:ac:96:f6:
                    39:1a:0e:1d:10:f1:24:44:a7:ed:9c:7f:1f:e3:ac:
                    35:06:eb:61:e2:77:97:b3:98:69:e6:03:a5:21:08:
                    a2:a2:2b:19:e4:8f:30:46:86:13:19:33:5c:fb:93:
                    22:16:56:79:0a:a6:cc:f4:8f:24:f4:14:f6:83:b2:
                    02:0b:6b:24:27:52:cd:51:b7:69:bf:22:c9:24:66:
                    0e:cc:16:6d:19:23:d5:cf:76:5d:f3:55:00:77:d3:
                    e3:c0:5a:95:68:d1:61:5b:48:08:4c:f4:40:c3:97:
                    f9:b3:03:d9:82:43:15:cf:b4:44:13:89:41:8a:47:
                    e2:8f:59:8f:cb:e4:56:2a:92:eb:cd:a7:29:d9:e0:
                    f4:3d:ff:ed:da:66:5e:bc:4e:36:e6:29:ad:a6:b2:
                    76:7d:7d:d8:93:78:68:1b:44:45:5c:71:53:0c:eb:
                    84:65:06:3e:a3:7d:86:09:4d:0b:a0:d5:69:33:86:
                    db:aa:da:fe:73:aa:9c:c3:fb:65:1c:8e:b8:4b:da:
                    6b:74:a3:1e:45:87:30:1b:37:dd:c3:80:d3:ee:6a:
                    85:ae:33:75:d2:c8:5f:c1:51:1b:26:9d:a4:62:34:
                    50:9f:24:98:48:3a:47:21:78:8d:18:8c:9d:8f:c5:
                    0f:fc:d7:25:a0:3e:4a:15:e0:73:b2:1d:e1:88:32:
                    fc:5e:3f:5d:0c:9f:84:c4:34:f1:b3:b2:bc:dc:d5:
                    11:3e:2a:22:a0:3f:22:dd:58:f8:40:ae:86:1e:1c:
                    e4:c0:44:00:f3:e8:7a:2f:eb:07:80:31:30:d6:37:
                    ae:a9:16:aa:fa:01:17:eb:2f:e7:fd:7e:51:ba:6c:
                    91:32:6e:e1:49:54:6a:bd:1a:8e:cc:29:ce:e2:47:
                    2f:eb:8d
                Exponent: 65537 (0x10001)
        X509v3 extensions:
            X509v3 Basic Constraints: 
                CA:FALSE
            Netscape Comment: 
                OpenSSL Generated Certificate
            X509v3 Subject Key Identifier: 
                7A:5E:95:4A:41:64:E0:D2:FE:82:68:A9:4F:58:E7:E6:89:40:6D:C8
            X509v3 Authority Key Identifier: 
                keyid:F7:DC:3C:8C:23:FE:7B:D0:65:D3:0C:82:AB:B8:9C:6F:6E:74:BD:37
                DirName:/C=US/ST=Utah/L=SLC/O=UofU/OU=MSD/CN=Corinne/emailAddress=corinne@gmail.com
                serial:1B:9A:B5:92:64:99:6E:27:AF:4C:C6:B5:CA:C7:C5:33:D9:21:54
    Signature Algorithm: md5WithRSAEncryption
    Signature Value:
        58:1f:a8:86:5c:f3:99:64:33:37:b7:de:aa:64:25:41:e0:c4:
        29:7b:49:ed:4d:b5:86:2f:68:e2:45:cf:32:67:ee:48:a1:c5:
        ce:d4:4b:86:df:0f:b1:17:f7:ad:2b:eb:43:dc:9c:16:a4:86:
        b1:c4:1d:f8:df:b6:26:05:06:98:83:af:3d:40:18:61:93:b2:
        3e:53:ab:ff:a8:1f:44:7b:e5:e5:65:3d:c6:31:56:73:44:fa:
        dd:ad:39:70:e7:41:40:43:61:3a:15:f9:f5:8a:d1:64:59:d6:
        51:66:45:d1:dc:03:bd:52:9d:0b:b8:29:fa:f4:b4:7a:dd:be:
        92:1c:03:27:52:c3:8a:63:eb:b5:01:75:72:d7:6d:26:e4:5c:
        9a:1c:4a:0e:0b:68:86:6d:5d:5e:88:86:bd:c9:a5:09:f4:c1:
        0f:25:7e:84:11:df:3b:37:04:4e:28:99:6c:cd:be:6d:b2:f0:
        9a:e8:f1:d4:46:81:e8:ee:b7:7d:cc:90:73:0b:26:ed:00:11:
        b9:c2:71:87:19:c8:d3:85:be:5a:4f:4c:03:d3:c3:1a:13:11:
        e0:b6:b4:26:c6:6e:2a:b0:e3:b3:df:e1:59:5a:21:53:b7:db:
        24:48:5a:88:76:d0:5f:f7:e3:32:85:24:d9:43:01:c5:a1:5b:
        5a:51:e5:78:42:32:47:8f:1d:a0:3c:0b:a4:1d:e3:28:4f:d4:
        89:28:3a:f7:8e:b8:e5:b9:33:01:01:c9:71:22:53:f0:7c:e3:
        47:48:8e:96:62:76:2b:d6:de:22:c7:ae:8a:ec:30:33:61:ea:
        58:f4:e1:78:2d:8a:08:94:ab:ef:89:b4:cc:3d:7c:08:59:ff:
        15:05:a3:9c:ab:79:76:5d:32:29:f8:6b:60:a8:b7:f5:03:fb:
        61:f4:63:c1:97:5c:bd:c8:b0:65:f8:fb:a9:55:f4:dc:de:4b:
        53:d1:a1:aa:fb:fc:cf:5c:f8:4a:f5:4e:bd:e6:72:61:f6:78:
        42:54:4f:a8:56:c0:f7:b9:d7:11:8b:07:05:87:12:81:42:df:
        6e:0d:a5:4d:e2:d1:82:36:c8:43:e5:e1:5e:3c:d9:32:32:d5:
        0a:a5:55:67:f0:02:0a:14:16:f8:6a:3d:bf:71:34:2f:57:f8:
        2f:8e:60:1e:a8:a4:45:59:7f:1d:7a:de:c9:52:4c:74:c9:1f:
        f8:3f:16:5e:ce:f0:57:a3:a6:db:fb:69:7d:79:07:ec:e3:6b:
        30:4c:e3:84:ca:b5:64:0f:7f:49:3d:dd:ae:51:58:c4:73:40:
        50:6d:2a:c9:0e:31:86:c1:b0:cd:71:2c:de:37:1e:3b:c6:dd:
        db:2d:c8:a5:54:65:c5:ce
-----BEGIN CERTIFICATE-----
MIIGeDCCBGCgAwIBAgICEAAwDQYJKoZIhvcNAQEEBQAwezELMAkGA1UEBhMCVVMx
DTALBgNVBAgMBFV0YWgxDDAKBgNVBAcMA1NMQzENMAsGA1UECgwEVW9mVTEMMAoG
A1UECwwDTVNEMRAwDgYDVQQDDAdDb3Jpbm5lMSAwHgYJKoZIhvcNAQkBFhFjb3Jp
bm5lQGdtYWlsLmNvbTAeFw0yNDAzMTUyMTA1MjlaFw0yNTAzMTUyMTA1MjlaMGkx
CzAJBgNVBAYTAlVTMQ0wCwYDVQQIDARVdGFoMQ0wCwYDVQQKDARVb2ZVMQwwCgYD
VQQLDANNU0QxDjAMBgNVBAMMBVNhcmFoMR4wHAYJKoZIhvcNAQkBFg9zYXJhaEBn
bWFpbC5jb20wggIiMA0GCSqGSIb3DQEBAQUAA4ICDwAwggIKAoICAQDGjumKghlG
bsmnOrKQM+N26nbsxbkxL671MA8jQuB7TPVkNJxQ7uUpLkPN0/2qQNAICE+CgZGO
aiGCTeR4581ejpoQGLQz+Y2k6I4U9k1aYFuXzuMJCaTpF68iwWzl30C5Kcn4ldJd
NRuU4YMBvpWu6219sPnUoiFVb8op0pXcDs1RchJ8IPuGv/3QBSd9eLGMD6n6AEM0
bgVpgwoBiylGWSDWpC2deO271hwMCcRuO6yW9jkaDh0Q8SREp+2cfx/jrDUG62Hi
d5ezmGnmA6UhCKKiKxnkjzBGhhMZM1z7kyIWVnkKpsz0jyT0FPaDsgILayQnUs1R
t2m/IskkZg7MFm0ZI9XPdl3zVQB30+PAWpVo0WFbSAhM9EDDl/mzA9mCQxXPtEQT
iUGKR+KPWY/L5FYqkuvNpynZ4PQ9/+3aZl68TjbmKa2msnZ9fdiTeGgbREVccVMM
64RlBj6jfYYJTQug1Wkzhtuq2v5zqpzD+2UcjrhL2mt0ox5FhzAbN93DgNPuaoWu
M3XSyF/BURsmnaRiNFCfJJhIOkcheI0YjJ2PxQ/81yWgPkoV4HOyHeGIMvxeP10M
n4TENPGzsrzc1RE+KiKgPyLdWPhAroYeHOTARADz6Hov6weAMTDWN66pFqr6ARfr
L+f9flG6bJEybuFJVGq9Go7MKc7iRy/rjQIDAQABo4IBFjCCARIwCQYDVR0TBAIw
ADAsBglghkgBhvhCAQ0EHxYdT3BlblNTTCBHZW5lcmF0ZWQgQ2VydGlmaWNhdGUw
HQYDVR0OBBYEFHpelUpBZODS/oJoqU9Y5+aJQG3IMIG3BgNVHSMEga8wgayAFPfc
PIwj/nvQZdMMgqu4nG9udL03oX+kfTB7MQswCQYDVQQGEwJVUzENMAsGA1UECAwE
VXRhaDEMMAoGA1UEBwwDU0xDMQ0wCwYDVQQKDARVb2ZVMQwwCgYDVQQLDANNU0Qx
EDAOBgNVBAMMB0NvcmlubmUxIDAeBgkqhkiG9w0BCQEWEWNvcmlubmVAZ21haWwu
Y29tghMbmrWSZJluJ69MxrXKx8Uz2SFUMA0GCSqGSIb3DQEBBAUAA4ICAQBYH6iG
XPOZZDM3t96qZCVB4MQpe0ntTbWGL2jiRc8yZ+5IocXO1EuG3w+xF/etK+tD3JwW
pIaxxB3437YmBQaYg689QBhhk7I+U6v/qB9Ee+XlZT3GMVZzRPrdrTlw50FAQ2E6
Ffn1itFkWdZRZkXR3AO9Up0LuCn69LR63b6SHAMnUsOKY+u1AXVy120m5FyaHEoO
C2iGbV1eiIa9yaUJ9MEPJX6EEd87NwROKJlszb5tsvCa6PHURoHo7rd9zJBzCybt
ABG5wnGHGcjThb5aT0wD08MaExHgtrQmxm4qsOOz3+FZWiFTt9skSFqIdtBf9+My
hSTZQwHFoVtaUeV4QjJHjx2gPAukHeMoT9SJKDr3jrjluTMBAclxIlPwfONHSI6W
YnYr1t4ix66K7DAzYepY9OF4LYoIlKvvibTMPXwIWf8VBaOcq3l2XTIp+GtgqLf1
A/th9GPBl1y9yLBl+PupVfTc3ktT0aGq+/zPXPhK9U695nJh9nhCVE+oVsD3udcR
iwcFhxKBQt9uDaVN4tGCNshD5eFePNkyMtUKpVVn8AIKFBb4aj2/cTQvV/gvjmAe
qKRFWX8det7JUkx0yR/4PxZezvBXo6bb+2l9eQfs42swTOOEyrVkD39JPd2uUVjE
c0BQbSrJDjGGwbDNcSzeNx47xt3bLcilVGXFzg==
-----END CERTIFICATE-----
